target datalayout = "e-m:e-p270:32:32-p271:32:32-p272:64:64-i64:64-i128:128-f80:128-n8:16:32:64-S128"
target triple = "x86_64-pc-linux-gnu"

@.str.3 = private unnamed_addr constant [10 x i8] c"open_path\00", align 1
@.str.4 = private unnamed_addr constant [3 x i8] c"rb\00", align 1
@.str.5 = private unnamed_addr constant [7 x i8] c"\0A.end\0A\00", align 1

; Function Attrs: nounwind uwtable
define ptr @Mio_ReadFile(ptr noundef %0, i32 noundef %1) #0 {
  %3 = alloca ptr, align 8
  %4 = alloca i32, align 4
  %5 = alloca ptr, align 8
  %6 = alloca ptr, align 8
  %7 = alloca i32, align 4
  %8 = alloca i32, align 4
  store ptr %0, ptr %3, align 8, !tbaa !3
  store i32 %1, ptr %4, align 4, !tbaa !8
  call void @llvm.lifetime.start.p0(i64 8, ptr %5) #10
  call void @llvm.lifetime.start.p0(i64 8, ptr %6) #10
  call void @llvm.lifetime.start.p0(i64 4, ptr %7) #10
  call void @llvm.lifetime.start.p0(i64 4, ptr %8) #10
  %9 = load ptr, ptr %3, align 8, !tbaa !3
  %10 = call ptr @Io_FileOpen(ptr noundef %9, ptr noundef @.str.3, ptr noundef @.str.4, i32 noundef 1)
  store ptr %10, ptr %6, align 8, !tbaa !12
  %11 = load ptr, ptr %6, align 8, !tbaa !12
  %12 = call i32 @fseek(ptr noundef %11, i64 noundef 0, i32 noundef 2)
  %13 = load ptr, ptr %6, align 8, !tbaa !12
  %14 = call i64 @ftell(ptr noundef %13)
  %15 = trunc i64 %14 to i32
  store i32 %15, ptr %7, align 4, !tbaa !8
  %16 = load ptr, ptr %6, align 8, !tbaa !12
  call void @rewind(ptr noundef %16)
  %17 = load i32, ptr %7, align 4, !tbaa !8
  %18 = add nsw i32 %17, 10
  %19 = sext i32 %18 to i64
  %20 = mul i64 1, %19
  %21 = call noalias ptr @malloc(i64 noundef %20) #12
  store ptr %21, ptr %5, align 8, !tbaa !3
  %22 = load ptr, ptr %5, align 8, !tbaa !3
  %23 = load i32, ptr %7, align 4, !tbaa !8
  %24 = sext i32 %23 to i64
  %25 = load ptr, ptr %6, align 8, !tbaa !12
  %26 = call i64 @fread(ptr noundef %22, i64 noundef %24, i64 noundef 1, ptr noundef %25)
  %27 = trunc i64 %26 to i32
  store i32 %27, ptr %8, align 4, !tbaa !8
  %28 = load ptr, ptr %5, align 8, !tbaa !3
  %29 = load i32, ptr %7, align 4, !tbaa !8
  %30 = sext i32 %29 to i64
  %31 = getelementptr inbounds i8, ptr %28, i64 %30
  store i8 0, ptr %31, align 1, !tbaa !33
  %32 = load i32, ptr %4, align 4, !tbaa !8
  %33 = icmp ne i32 %32, 0
  br i1 %33, label %34, label %37

34:                                               ; preds = %2
  %35 = load ptr, ptr %5, align 8, !tbaa !3
  %36 = call ptr @strcat(ptr noundef %35, ptr noundef @.str.5) #10
  br label %37

37:                                               ; preds = %34, %2
  %38 = load ptr, ptr %6, align 8, !tbaa !12
  %39 = call i32 @fclose(ptr noundef %38)
  %40 = load ptr, ptr %5, align 8, !tbaa !3
  call void @llvm.lifetime.end.p0(i64 4, ptr %8) #10
  call void @llvm.lifetime.end.p0(i64 4, ptr %7) #10
  call void @llvm.lifetime.end.p0(i64 8, ptr %6) #10
  call void @llvm.lifetime.end.p0(i64 8, ptr %5) #10
  ret ptr %40
}