; Function Attrs: nounwind uwtable
define noalias noundef ptr @Mio_ReadFile(ptr noundef %0, i32 noundef %1) local_unnamed_addr #0 {
  %3 = tail call ptr @Io_FileOpen(ptr noundef %0, ptr noundef nonnull @.str.3, ptr noundef nonnull @.str.4, i32 noundef 1) #17
  %4 = tail call i32 @fseek(ptr noundef %3, i64 noundef 0, i32 noundef 2)
  %5 = tail call i64 @ftell(ptr noundef %3)
  tail call void @rewind(ptr noundef %3)
  %6 = shl i64 %5, 32
  %sext = add i64 %6, 42949672960
  %7 = ashr exact i64 %sext, 32
  %8 = tail call noalias ptr @malloc(i64 noundef %7) #19
  %9 = ashr exact i64 %6, 32
  %10 = tail call i64 @fread(ptr noundef %8, i64 noundef %9, i64 noundef 1, ptr noundef %3)
  %11 = getelementptr inbounds i8, ptr %8, i64 %9
  store i8 0, ptr %11, align 1, !tbaa !25
  %.not = icmp eq i32 %1, 0
  br i1 %.not, label %13, label %12

12:                                               ; preds = %2
  %strlen = tail call i64 @strlen(ptr nonnull dereferenceable(1) %8)
  %endptr = getelementptr inbounds i8, ptr %8, i64 %strlen
  tail call void @llvm.memcpy.p0.p0.i64(ptr noundef nonnull align 1 dereferenceable(7) %endptr, ptr noundef nonnull align 1 dereferenceable(7) @.str.5, i64 7, i1 false)
  br label %13

13:                                               ; preds = %12, %2
  %14 = tail call i32 @fclose(ptr noundef %3)
  ret ptr %8
}